ARM GAS  C:\DOCUME~1\Admin\LOCALS~1\Temp\ccfzBNk3.s 			page 1


   1              		.syntax unified
   2              		.cpu cortex-m3
   3              		.fpu softvfp
   4              		.eabi_attribute 20, 1
   5              		.eabi_attribute 21, 1
   6              		.eabi_attribute 23, 3
   7              		.eabi_attribute 24, 1
   8              		.eabi_attribute 25, 1
   9              		.eabi_attribute 26, 1
  10              		.eabi_attribute 30, 1
  11              		.eabi_attribute 34, 1
  12              		.eabi_attribute 18, 4
  13              		.thumb
  14              		.file	"main.c"
  15              		.text
  16              	.Ltext0:
  17              		.cfi_sections	.debug_frame
  18              		.section	.text.In_EP,"ax",%progbits
  19              		.align	2
  20              		.global	In_EP
  21              		.thumb
  22              		.thumb_func
  23              		.type	In_EP, %function
  24              	In_EP:
  25              	.LFB64:
  26              		.file 1 ".\\main.c"
   1:.\main.c      **** /*******************************************************************************
   2:.\main.c      **** * File Name: Main.c
   3:.\main.c      **** * Version 1.0
   4:.\main.c      **** *
   5:.\main.c      **** * Description:
   6:.\main.c      **** * This file contains the main function for the USB HID Keyboard application.
   7:.\main.c      **** *
   8:.\main.c      **** * Note:
   9:.\main.c      **** *
  10:.\main.c      **** ********************************************************************************
  11:.\main.c      **** * Copyright (2009), Cypress Semiconductor Corporation. All rights reserved.
  12:.\main.c      **** ********************************************************************************
  13:.\main.c      **** * This software is owned by Cypress Semiconductor Corporation (Cypress) and is
  14:.\main.c      **** * protected by and subject to worldwide patent protection (United States and
  15:.\main.c      **** * foreign),United States copyright laws and international treaty provisions. 
  16:.\main.c      **** * Cypress hereby grants to licensee a personal, non-exclusive, non-transferable
  17:.\main.c      **** * license to copy, use, modify, create derivative works of, and compile the
  18:.\main.c      **** * Cypress Source Code and derivative works for the sole purpose of creating 
  19:.\main.c      **** * custom software in support of licensee product to be used only in conjunction
  20:.\main.c      **** * with a Cypress integrated circuit as specified in the applicable agreement.
  21:.\main.c      **** * Any reproduction, modification, translation, compilation, or representation of
  22:.\main.c      **** * this software except as specified above is prohibited without the express
  23:.\main.c      **** * written permission of Cypress.
  24:.\main.c      **** *
  25:.\main.c      **** * Disclaimer: CYPRESS MAKES NO WARRANTY OF ANY KIND, EXPRESS OR IMPLIED, WITH
  26:.\main.c      **** * REGARD TO THIS MATERIAL, INCLUDING, BUT NOT LIMITED TO, THE IMPLIED
  27:.\main.c      **** * WARRANTIES OF MERCHANTABILITY AND FITNESS FOR A PARTICULAR PURPOSE.
  28:.\main.c      **** * Cypress reserves the right to make changes without further notice to the
  29:.\main.c      **** * materials described herein. Cypress does not assume any liability arising out
  30:.\main.c      **** * of the application or use of any product or circuit described herein. Cypress 
  31:.\main.c      **** * does not authorize its products for use as critical components in life-support
ARM GAS  C:\DOCUME~1\Admin\LOCALS~1\Temp\ccfzBNk3.s 			page 2


  32:.\main.c      **** * systems where a malfunction or failure may reasonably be expected to result in 
  33:.\main.c      **** * significant injury to the user. The inclusion of Cypress' product in a life-
  34:.\main.c      **** * support systems application implies that the manufacturer assumes all risk of
  35:.\main.c      **** * such use and in doing so indemnifies Cypress against all charges. Use may be
  36:.\main.c      **** * limited by and subject to the applicable Cypress software license agreement. 
  37:.\main.c      **** *******************************************************************************/
  38:.\main.c      **** 
  39:.\main.c      **** /*************************************************************************************
  40:.\main.c      ****                                 THEORY OF OPERATION
  41:.\main.c      **** * This project is a keyboard that when a user presses a button, will print a pre-defined 
  42:.\main.c      **** * string into a text editor. The program is also constantly display the status of num lock,
  43:.\main.c      **** * caps lock, and scroll lock on both LEDs and an LCD.
  44:.\main.c      **** *
  45:.\main.c      **** *************************************************************************************/
  46:.\main.c      **** 
  47:.\main.c      **** #include <device.h>
  48:.\main.c      **** #include <stdio.h>
  49:.\main.c      **** 
  50:.\main.c      **** #define LSHIFT 0x02 
  51:.\main.c      **** #define ENTER 0x28 
  52:.\main.c      **** #define CAPS 0x39
  53:.\main.c      **** 
  54:.\main.c      **** // The problem is probably in configuring USBFS_1, as it should be defined in USBFS_!.h but isn't
  55:.\main.c      **** // (in the exampole, it is.)
  56:.\main.c      **** //#define USBFS_1_DEVICE0_CONFIGURATION0_INTERFACE0_ALTERNATE0_HID_OUT_BUF_SIZE (2u)
  57:.\main.c      **** 
  58:.\main.c      **** void In_EP (void);
  59:.\main.c      **** void Out_EP (void);
  60:.\main.c      **** 
  61:.\main.c      **** /* External variable where OUT Report data is stored */
  62:.\main.c      **** // I have no fucking clue where this is supposed to be defined. Look at other examples and see if o
  63:.\main.c      **** extern uint8 USBFS_1_DEVICE0_CONFIGURATION0_INTERFACE0_ALTERNATE0_HID_OUT_BUF[USBFS_1_DEVICE0_CONFI
  64:.\main.c      **** 
  65:.\main.c      **** //Creats a Scan Code Look Up Table for the various ASCII values
  66:.\main.c      **** const uint8 aASCII_ToScanCode[] = {0x2C, 0x1E, 0x34, 0x20, 0x21, 0x22, 0x24, 0x34, 0x26, 0x27, 0x25
  67:.\main.c      **** 								   0x2D, 0x37, 0x38, 0x27, 0x1E, 0x1F, 0x20, 0x21, 0x22, 0x23, 0x24, 0x25, 0x26, 
  68:.\main.c      **** 								   0x33, 0x33, 0x36, 0x2E, 0x37, 0x38, 0x1F, 0x04, 0x05, 0x06, 0x07, 0x08, 0x09, 
  69:.\main.c      **** 								   0x0A, 0x0B, 0x0C, 0x0D, 0x0E, 0x0F, 0x10, 0x11, 0x12, 0x13, 0x14, 0x15 ,0x16, 
  70:.\main.c      **** 								   0x17, 0x18, 0x19, 0x1A, 0x1B, 0x1C, 0x1D, 0x2F, 0x31, 0x30, 0x23, 0x2D, 0x35, 
  71:.\main.c      **** 								   0x04, 0x05, 0x06, 0x07, 0x08, 0x09, 0x0A, 0x0B, 0x0C, 0x0D, 0x0E, 0x0F, 0x10, 
  72:.\main.c      **** 								   0x11, 0x12, 0x13, 0x14, 0x15 ,0x16, 0x17, 0x18, 0x19, 0x1A, 0x1B, 0x1C, 0x1D, 
  73:.\main.c      **** 								   0x2F, 0x31, 0x30, 0x35, 0x4C};
  74:.\main.c      **** 								   
  75:.\main.c      **** /* Array of Keycode information to send to PC */
  76:.\main.c      **** // I think USBHID keyboards always send 8 character frames?
  77:.\main.c      **** static unsigned char Keyboard_Data[8] = {0, 0, 0, 0, 0, 0, 0, 0}; 
  78:.\main.c      **** /* Array of information pertaining to LEDS */
  79:.\main.c      **** static unsigned char Out_Data[1] = {0};
  80:.\main.c      **** /* String that will be printed when Type_Input (SW2) is pressed */
  81:.\main.c      **** //static const char StringStorage[] = {"SmOk3 w33d AlL dAy 3rVy DaY 1337 420 71994 "};
  82:.\main.c      **** static uint8 i;
  83:.\main.c      **** static uint8 key;
  84:.\main.c      **** 
  85:.\main.c      **** /* I don't know if this clears stuff or not */
  86:.\main.c      **** /* uint32 result */
  87:.\main.c      **** /* result  = CY_GET_REG32(ShiftReg_1_OUT_FIFO_VAL_LSB_PTR); */
  88:.\main.c      **** static uint32 shiftreg_result;
ARM GAS  C:\DOCUME~1\Admin\LOCALS~1\Temp\ccfzBNk3.s 			page 3


  89:.\main.c      **** //static uint8 shiftreg_result_bytes[4];
  90:.\main.c      **** static char StringStorage[8]; // render shftreg_result_bytes w/ sprintf so it's easy to print it vi
  91:.\main.c      **** 
  92:.\main.c      **** void main()
  93:.\main.c      **** {
  94:.\main.c      ****     // enable global interrupts
  95:.\main.c      ****     CYGlobalIntEnable; 
  96:.\main.c      ****     
  97:.\main.c      ****     /* USB SETUP */
  98:.\main.c      **** 	/*Start USBFS Operation and Device 0 and with 5V operation*/ 
  99:.\main.c      **** 	USBFS_1_Start(0, USBFS_1_DWR_VDDD_OPERATION);
 100:.\main.c      **** 	/*Enables OUT EP*/
 101:.\main.c      **** 	USBFS_1_EnableOutEP(2);
 102:.\main.c      **** 	/*Waits for USB to enumerate*/ 
 103:.\main.c      **** 	while(!USBFS_1_bGetConfiguration()); 		
 104:.\main.c      **** 	/*Begins USB Traffic*/
 105:.\main.c      **** 	USBFS_1_LoadInEP(1, Keyboard_Data, 8);  
 106:.\main.c      ****     /* END USB SETUP */
 107:.\main.c      ****     
 108:.\main.c      ****     ShiftReg_1_Enable(); // not sure if necessary
 109:.\main.c      ****     ShiftReg_1_Start(); // one of these is necessary tho
 110:.\main.c      **** 	
 111:.\main.c      ****     for(;;)
 112:.\main.c      ****     {
 113:.\main.c      **** 		
 114:.\main.c      ****         shiftreg_result = CY_GET_REG32(ShiftReg_1_OUT_FIFO_VAL_LSB_PTR);
 115:.\main.c      ****         //shiftreg_result_bytes[0] = shiftreg_result;
 116:.\main.c      ****         //shiftreg_result_bytes[1] = shiftreg_result >> 8;
 117:.\main.c      ****         //shiftreg_result_bytes[2] = shiftreg_result >> 16;
 118:.\main.c      ****         //shiftreg_result_bytes[3] = shiftreg_result >> 24;
 119:.\main.c      ****         sprintf(StringStorage,"%X",shiftreg_result);
 120:.\main.c      ****         
 121:.\main.c      ****         /* USB HID keyboard stuff */
 122:.\main.c      ****         /*Checks for ACK from host*/
 123:.\main.c      **** 		if(USBFS_1_bGetEPAckState(1)) 
 124:.\main.c      **** 		{
 125:.\main.c      ****             if(SWITCHPIN_Read() == 0){LEDPIN_Write(1);}
 126:.\main.c      ****             if(SWITCHPIN_Read() != 0){LEDPIN_Write(0);}
 127:.\main.c      **** 			/*Function to Send Data to PC*/
 128:.\main.c      **** 			In_EP(); 	
 129:.\main.c      **** 
 130:.\main.c      **** 			/*Function to recieve data from PC*/	
 131:.\main.c      **** 			Out_EP();
 132:.\main.c      **** 
 133:.\main.c      **** 		}
 134:.\main.c      ****         /* End USB HID keyboard stuff */
 135:.\main.c      ****     }
 136:.\main.c      **** }
 137:.\main.c      **** 
 138:.\main.c      **** void In_EP (void)
 139:.\main.c      **** {
  27              		.loc 1 139 0
  28              		.cfi_startproc
  29              		@ args = 0, pretend = 0, frame = 0
  30              		@ frame_needed = 0, uses_anonymous_args = 0
  31 0000 08B5     		push	{r3, lr}
  32              		.cfi_def_cfa_offset 8
ARM GAS  C:\DOCUME~1\Admin\LOCALS~1\Temp\ccfzBNk3.s 			page 4


  33              		.cfi_offset 3, -8
  34              		.cfi_offset 14, -4
 140:.\main.c      **** 	/*Checks for Type_Input(SW1) to be pressed. This ensures that the text is only typed when button i
 141:.\main.c      **** 	if(SWITCHPIN_Read() == 0) //should this really be 0
  35              		.loc 1 141 0
  36 0002 FFF7FEFF 		bl	SWITCHPIN_Read
  37              	.LVL0:
  38 0006 0028     		cmp	r0, #0
  39 0008 6FD1     		bne	.L1
  40              	.L3:
 142:.\main.c      **** 	{
 143:.\main.c      **** 		/*Waits for button to be released. This is a de-bounce implimentation*/
 144:.\main.c      **** 		while(SWITCHPIN_Read() == 0);   
  41              		.loc 1 144 0 discriminator 1
  42 000a FFF7FEFF 		bl	SWITCHPIN_Read
  43              	.LVL1:
  44 000e 0028     		cmp	r0, #0
  45 0010 FBD0     		beq	.L3
  46 0012 47E0     		b	.L4
  47              	.L11:
 145:.\main.c      **** 			/*Checks to be sure a null is not present*/
 146:.\main.c      **** 			while(StringStorage[i] != 0) 
 147:.\main.c      **** 			{
 148:.\main.c      **** 				/*Ensures that all ASCII values in the string are in range*/
 149:.\main.c      **** 				if((StringStorage[i] >= 0x20) && (StringStorage[i] <= 0x7F))
  48              		.loc 1 149 0
  49 0014 203B     		subs	r3, r3, #32
  50 0016 DBB2     		uxtb	r3, r3
  51 0018 5F2B     		cmp	r3, #95
  52 001a 27D8     		bhi	.L5
 150:.\main.c      **** 				{
 151:.\main.c      **** 					/*Removes 0x20 offset to have key presses begin at 0. This is not required but used to make th
 152:.\main.c      **** 					key = StringStorage[i] - 0x20; 
  53              		.loc 1 152 0
  54 001c 334A     		ldr	r2, .L15
  55 001e 1370     		strb	r3, [r2]
 153:.\main.c      **** 					if(((key >= 1) && (key <= 6)) || ((key >= 8) && (key <=11)) || (key == 26) || (key == 28) || (
  56              		.loc 1 153 0
  57 0020 5A1E     		subs	r2, r3, #1
  58 0022 D2B2     		uxtb	r2, r2
  59 0024 052A     		cmp	r2, #5
  60 0026 16D9     		bls	.L6
  61              		.loc 1 153 0 is_stmt 0 discriminator 1
  62 0028 A3F10802 		sub	r2, r3, #8
  63 002c D2B2     		uxtb	r2, r2
  64 002e 032A     		cmp	r2, #3
  65 0030 11D9     		bls	.L6
  66              		.loc 1 153 0 discriminator 2
  67 0032 1A2B     		cmp	r3, #26
  68 0034 0FD0     		beq	.L6
  69              		.loc 1 153 0 discriminator 3
  70 0036 1C2B     		cmp	r3, #28
  71 0038 0DD0     		beq	.L6
  72              		.loc 1 153 0 discriminator 4
  73 003a A3F11E02 		sub	r2, r3, #30
  74 003e D2B2     		uxtb	r2, r2
  75 0040 1C2A     		cmp	r2, #28
ARM GAS  C:\DOCUME~1\Admin\LOCALS~1\Temp\ccfzBNk3.s 			page 5


  76 0042 08D9     		bls	.L6
  77              		.loc 1 153 0 discriminator 5
  78 0044 3E2B     		cmp	r3, #62
  79 0046 06D0     		beq	.L6
  80              		.loc 1 153 0 discriminator 6
  81 0048 3F2B     		cmp	r3, #63
  82 004a 04D0     		beq	.L6
  83              		.loc 1 153 0 discriminator 7
  84 004c A3F15B02 		sub	r2, r3, #91
  85 0050 D2B2     		uxtb	r2, r2
  86 0052 032A     		cmp	r2, #3
  87 0054 03D8     		bhi	.L7
  88              	.L6:
 154:.\main.c      **** 					{
 155:.\main.c      **** 						/*Applies Shift key is any keys that require the shift button is pressed. The buttons include
 156:.\main.c      **** 						Keyboard_Data[0] = LSHIFT; 
  89              		.loc 1 156 0 is_stmt 1
  90 0056 0221     		movs	r1, #2
  91 0058 244A     		ldr	r2, .L15
  92 005a 1171     		strb	r1, [r2, #4]
  93 005c 02E0     		b	.L8
  94              	.L7:
 157:.\main.c      **** 					}
 158:.\main.c      **** 					else
 159:.\main.c      **** 					{
 160:.\main.c      **** 						/*If the shift is not required, then the modifier byte remains set to 0x00*/
 161:.\main.c      **** 						Keyboard_Data[0] = 0x00; 
  95              		.loc 1 161 0
  96 005e 0021     		movs	r1, #0
  97 0060 224A     		ldr	r2, .L15
  98 0062 1171     		strb	r1, [r2, #4]
  99              	.L8:
 162:.\main.c      **** 					}
 163:.\main.c      **** 				
 164:.\main.c      **** 					/*Loads the converted Scan Code using LUT into the fist Key Code array location*/
 165:.\main.c      **** 					Keyboard_Data[2] = aASCII_ToScanCode[key]; 
 100              		.loc 1 165 0
 101 0064 224A     		ldr	r2, .L15+4
 102 0066 D25C     		ldrb	r2, [r2, r3]	@ zero_extendqisi2
 103 0068 204B     		ldr	r3, .L15
 104 006a 9A71     		strb	r2, [r3, #6]
 105              	.L5:
 166:.\main.c      **** 				}
 167:.\main.c      **** 				
 168:.\main.c      **** 					/*Loads EP1 for a IN transfer to PC*/
 169:.\main.c      **** 					USBFS_1_LoadInEP(1, Keyboard_Data, 8);
 106              		.loc 1 169 0
 107 006c 0120     		movs	r0, #1
 108 006e 2149     		ldr	r1, .L15+8
 109 0070 0822     		movs	r2, #8
 110 0072 FFF7FEFF 		bl	USBFS_1_LoadInEP
 111              	.LVL2:
 112              	.L9:
 170:.\main.c      **** 					/*Waits for ACK from PC*/
 171:.\main.c      **** 					while(!USBFS_1_bGetEPAckState(1));
 113              		.loc 1 171 0 discriminator 1
 114 0076 0120     		movs	r0, #1
ARM GAS  C:\DOCUME~1\Admin\LOCALS~1\Temp\ccfzBNk3.s 			page 6


 115 0078 FFF7FEFF 		bl	USBFS_1_GetEPAckState
 116              	.LVL3:
 117 007c 0028     		cmp	r0, #0
 118 007e FAD0     		beq	.L9
 172:.\main.c      **** 					/*Resets modifer byte to 0x00*/
 173:.\main.c      **** 					Keyboard_Data[0] = 0x00; 
 119              		.loc 1 173 0
 120 0080 1A49     		ldr	r1, .L15
 121 0082 0023     		movs	r3, #0
 122 0084 0B71     		strb	r3, [r1, #4]
 174:.\main.c      **** 					/*Resets keycode 0 to 0x00*/
 175:.\main.c      **** 					Keyboard_Data[2] = 0x00; 
 123              		.loc 1 175 0
 124 0086 8B71     		strb	r3, [r1, #6]
 176:.\main.c      **** 					/*Loads EP1 for a IN transfer to PC. This simulates the buttons being released.*/
 177:.\main.c      **** 					USBFS_1_LoadInEP(1, Keyboard_Data, 8);
 125              		.loc 1 177 0
 126 0088 0120     		movs	r0, #1
 127 008a 0431     		adds	r1, r1, #4
 128 008c 0822     		movs	r2, #8
 129 008e FFF7FEFF 		bl	USBFS_1_LoadInEP
 130              	.LVL4:
 131              	.L10:
 178:.\main.c      **** 					/*Waits for ACK from PC*/
 179:.\main.c      **** 					while(!USBFS_1_bGetEPAckState(1));
 132              		.loc 1 179 0 discriminator 1
 133 0092 0120     		movs	r0, #1
 134 0094 FFF7FEFF 		bl	USBFS_1_GetEPAckState
 135              	.LVL5:
 136 0098 0028     		cmp	r0, #0
 137 009a FAD0     		beq	.L10
 180:.\main.c      **** 					/*Advances to the next ASCII Character*/
 181:.\main.c      **** 					i++;		
 138              		.loc 1 181 0
 139 009c 134A     		ldr	r2, .L15
 140 009e 137B     		ldrb	r3, [r2, #12]	@ zero_extendqisi2
 141 00a0 0133     		adds	r3, r3, #1
 142 00a2 1373     		strb	r3, [r2, #12]
 143              	.L4:
 146:.\main.c      **** 			{
 144              		.loc 1 146 0
 145 00a4 114A     		ldr	r2, .L15
 146 00a6 137B     		ldrb	r3, [r2, #12]	@ zero_extendqisi2
 147 00a8 1344     		add	r3, r3, r2
 148 00aa 1B7C     		ldrb	r3, [r3, #16]	@ zero_extendqisi2
 149 00ac 002B     		cmp	r3, #0
 150 00ae B1D1     		bne	.L11
 182:.\main.c      **** 			}	
 183:.\main.c      **** 	
 184:.\main.c      **** 		/*Loads 0x28 (Enter/Return) into keycode 0 to move to next line*/
 185:.\main.c      **** 		Keyboard_Data[2] = ENTER;
 151              		.loc 1 185 0
 152 00b0 1146     		mov	r1, r2
 153 00b2 2823     		movs	r3, #40
 154 00b4 9371     		strb	r3, [r2, #6]
 186:.\main.c      **** 		/*Loads EP1 for a IN transfer to PC*/
 187:.\main.c      **** 		USBFS_1_LoadInEP(1, Keyboard_Data, 8);
ARM GAS  C:\DOCUME~1\Admin\LOCALS~1\Temp\ccfzBNk3.s 			page 7


 155              		.loc 1 187 0
 156 00b6 0120     		movs	r0, #1
 157 00b8 0431     		adds	r1, r1, #4
 158 00ba 0822     		movs	r2, #8
 159 00bc FFF7FEFF 		bl	USBFS_1_LoadInEP
 160              	.LVL6:
 161              	.L12:
 188:.\main.c      **** 		/*Waits for ACK from PC*/
 189:.\main.c      **** 		while(!USBFS_1_bGetEPAckState(1));
 162              		.loc 1 189 0 discriminator 1
 163 00c0 0120     		movs	r0, #1
 164 00c2 FFF7FEFF 		bl	USBFS_1_GetEPAckState
 165              	.LVL7:
 166 00c6 0028     		cmp	r0, #0
 167 00c8 FAD0     		beq	.L12
 190:.\main.c      **** 		/*Resets keycode 0 to 0x00*/
 191:.\main.c      **** 		Keyboard_Data[2] = 0x00;
 168              		.loc 1 191 0
 169 00ca 0849     		ldr	r1, .L15
 170 00cc 0023     		movs	r3, #0
 171 00ce 8B71     		strb	r3, [r1, #6]
 192:.\main.c      **** 		/*Loads EP1 for a IN transfer to PC. This simulates the buttons being released.*/
 193:.\main.c      **** 		USBFS_1_LoadInEP(1, Keyboard_Data, 8);
 172              		.loc 1 193 0
 173 00d0 0120     		movs	r0, #1
 174 00d2 0431     		adds	r1, r1, #4
 175 00d4 0822     		movs	r2, #8
 176 00d6 FFF7FEFF 		bl	USBFS_1_LoadInEP
 177              	.LVL8:
 178              	.L13:
 194:.\main.c      **** 		/*Waits for ACK from PC*/
 195:.\main.c      **** 		while(!USBFS_1_bGetEPAckState(1));
 179              		.loc 1 195 0 discriminator 1
 180 00da 0120     		movs	r0, #1
 181 00dc FFF7FEFF 		bl	USBFS_1_GetEPAckState
 182              	.LVL9:
 183 00e0 0028     		cmp	r0, #0
 184 00e2 FAD0     		beq	.L13
 196:.\main.c      **** 		/*Resets string position counter to 0 to type string again*/
 197:.\main.c      **** 		i=0;
 185              		.loc 1 197 0
 186 00e4 0022     		movs	r2, #0
 187 00e6 014B     		ldr	r3, .L15
 188 00e8 1A73     		strb	r2, [r3, #12]
 189              	.L1:
 190 00ea 08BD     		pop	{r3, pc}
 191              	.L16:
 192              		.align	2
 193              	.L15:
 194 00ec 00000000 		.word	.LANCHOR0
 195 00f0 00000000 		.word	.LANCHOR1
 196 00f4 04000000 		.word	.LANCHOR0+4
 197              		.cfi_endproc
 198              	.LFE64:
 199              		.size	In_EP, .-In_EP
 200              		.section	.text.Out_EP,"ax",%progbits
 201              		.align	2
ARM GAS  C:\DOCUME~1\Admin\LOCALS~1\Temp\ccfzBNk3.s 			page 8


 202              		.global	Out_EP
 203              		.thumb
 204              		.thumb_func
 205              		.type	Out_EP, %function
 206              	Out_EP:
 207              	.LFB65:
 198:.\main.c      **** 	}
 199:.\main.c      **** }
 200:.\main.c      **** 	
 201:.\main.c      **** 
 202:.\main.c      **** void Out_EP (void)
 203:.\main.c      **** {
 208              		.loc 1 203 0
 209              		.cfi_startproc
 210              		@ args = 0, pretend = 0, frame = 0
 211              		@ frame_needed = 0, uses_anonymous_args = 0
 212 0000 08B5     		push	{r3, lr}
 213              		.cfi_def_cfa_offset 8
 214              		.cfi_offset 3, -8
 215              		.cfi_offset 14, -4
 204:.\main.c      **** 	/*Reads the OUT Report data */
 205:.\main.c      ****     // these names tho
 206:.\main.c      **** 	Out_Data[0] = USBFS_1_DEVICE0_CONFIGURATION0_INTERFACE0_ALTERNATE0_HID_OUT_BUF[0];
 216              		.loc 1 206 0
 217 0002 0B4B     		ldr	r3, .L21
 218 0004 1B78     		ldrb	r3, [r3]	@ zero_extendqisi2
 219 0006 0B4A     		ldr	r2, .L21+4
 220 0008 1376     		strb	r3, [r2, #24]
 207:.\main.c      **** 		
 208:.\main.c      **** 	/*If the Caps Lock is enabled, light up the led*/
 209:.\main.c      **** 	if((Out_Data[0] & 0x02)!= 0)
 221              		.loc 1 209 0
 222 000a 13F0020F 		tst	r3, #2
 223 000e 0BD0     		beq	.L18
 210:.\main.c      **** 	{
 211:.\main.c      **** 		Keyboard_Data[2] = 0x00;
 224              		.loc 1 211 0
 225 0010 1146     		mov	r1, r2
 226 0012 0023     		movs	r3, #0
 227 0014 9371     		strb	r3, [r2, #6]
 212:.\main.c      **** 		USBFS_1_LoadInEP(1, Keyboard_Data, 8);
 228              		.loc 1 212 0
 229 0016 0120     		movs	r0, #1
 230 0018 0431     		adds	r1, r1, #4
 231 001a 0822     		movs	r2, #8
 232 001c FFF7FEFF 		bl	USBFS_1_LoadInEP
 233              	.LVL10:
 213:.\main.c      **** 		LEDPIN_Write(1);
 234              		.loc 1 213 0
 235 0020 0120     		movs	r0, #1
 236 0022 FFF7FEFF 		bl	LEDPIN_Write
 237              	.LVL11:
 238 0026 08BD     		pop	{r3, pc}
 239              	.L18:
 214:.\main.c      **** 	}
 215:.\main.c      **** 	
 216:.\main.c      **** 	/*If the Caps Lock not is enabled, clear the LED*/
ARM GAS  C:\DOCUME~1\Admin\LOCALS~1\Temp\ccfzBNk3.s 			page 9


 217:.\main.c      **** 	else
 218:.\main.c      **** 	{
 219:.\main.c      **** 		LEDPIN_Write(0);
 240              		.loc 1 219 0
 241 0028 0020     		movs	r0, #0
 242 002a FFF7FEFF 		bl	LEDPIN_Write
 243              	.LVL12:
 244 002e 08BD     		pop	{r3, pc}
 245              	.L22:
 246              		.align	2
 247              	.L21:
 248 0030 00000000 		.word	USBFS_1_DEVICE0_CONFIGURATION0_INTERFACE0_ALTERNATE0_HID_OUT_BUF
 249 0034 00000000 		.word	.LANCHOR0
 250              		.cfi_endproc
 251              	.LFE65:
 252              		.size	Out_EP, .-Out_EP
 253              		.section	.text.main,"ax",%progbits
 254              		.align	2
 255              		.global	main
 256              		.thumb
 257              		.thumb_func
 258              		.type	main, %function
 259              	main:
 260              	.LFB63:
  93:.\main.c      ****     // enable global interrupts
 261              		.loc 1 93 0
 262              		.cfi_startproc
 263              		@ Volatile: function does not return.
 264              		@ args = 0, pretend = 0, frame = 0
 265              		@ frame_needed = 0, uses_anonymous_args = 0
 266 0000 08B5     		push	{r3, lr}
 267              		.cfi_def_cfa_offset 8
 268              		.cfi_offset 3, -8
 269              		.cfi_offset 14, -4
  95:.\main.c      ****     
 270              		.loc 1 95 0
 271              	@ 95 ".\main.c" 1
 272 0002 62B6     		CPSIE   i
 273              	@ 0 "" 2
  99:.\main.c      **** 	/*Enables OUT EP*/
 274              		.loc 1 99 0
 275              		.thumb
 276 0004 0020     		movs	r0, #0
 277 0006 0221     		movs	r1, #2
 278 0008 FFF7FEFF 		bl	USBFS_1_Start
 279              	.LVL13:
 101:.\main.c      **** 	/*Waits for USB to enumerate*/ 
 280              		.loc 1 101 0
 281 000c 0220     		movs	r0, #2
 282 000e FFF7FEFF 		bl	USBFS_1_EnableOutEP
 283              	.LVL14:
 284              	.L24:
 103:.\main.c      **** 	/*Begins USB Traffic*/
 285              		.loc 1 103 0 discriminator 1
 286 0012 FFF7FEFF 		bl	USBFS_1_GetConfiguration
 287              	.LVL15:
 288 0016 0028     		cmp	r0, #0
ARM GAS  C:\DOCUME~1\Admin\LOCALS~1\Temp\ccfzBNk3.s 			page 10


 289 0018 FBD0     		beq	.L24
 105:.\main.c      ****     /* END USB SETUP */
 290              		.loc 1 105 0
 291 001a 0120     		movs	r0, #1
 292 001c 1249     		ldr	r1, .L30
 293 001e 0822     		movs	r2, #8
 294 0020 FFF7FEFF 		bl	USBFS_1_LoadInEP
 295              	.LVL16:
 108:.\main.c      ****     ShiftReg_1_Start(); // one of these is necessary tho
 296              		.loc 1 108 0
 297 0024 FFF7FEFF 		bl	ShiftReg_1_Enable
 298              	.LVL17:
 109:.\main.c      **** 	
 299              		.loc 1 109 0
 300 0028 FFF7FEFF 		bl	ShiftReg_1_Start
 301              	.LVL18:
 302              	.L25:
 114:.\main.c      ****         //shiftreg_result_bytes[0] = shiftreg_result;
 303              		.loc 1 114 0
 304 002c 0F4B     		ldr	r3, .L30+4
 305 002e 1A68     		ldr	r2, [r3]
 306 0030 0F48     		ldr	r0, .L30+8
 307 0032 C261     		str	r2, [r0, #28]
 119:.\main.c      ****         
 308              		.loc 1 119 0
 309 0034 1030     		adds	r0, r0, #16
 310 0036 0F49     		ldr	r1, .L30+12
 311 0038 FFF7FEFF 		bl	sprintf
 312              	.LVL19:
 123:.\main.c      **** 		{
 313              		.loc 1 123 0
 314 003c 0120     		movs	r0, #1
 315 003e FFF7FEFF 		bl	USBFS_1_GetEPAckState
 316              	.LVL20:
 317 0042 0028     		cmp	r0, #0
 318 0044 F2D0     		beq	.L25
 125:.\main.c      ****             if(SWITCHPIN_Read() != 0){LEDPIN_Write(0);}
 319              		.loc 1 125 0
 320 0046 FFF7FEFF 		bl	SWITCHPIN_Read
 321              	.LVL21:
 322 004a 10B9     		cbnz	r0, .L26
 125:.\main.c      ****             if(SWITCHPIN_Read() != 0){LEDPIN_Write(0);}
 323              		.loc 1 125 0 is_stmt 0 discriminator 1
 324 004c 0120     		movs	r0, #1
 325 004e FFF7FEFF 		bl	LEDPIN_Write
 326              	.LVL22:
 327              	.L26:
 126:.\main.c      **** 			/*Function to Send Data to PC*/
 328              		.loc 1 126 0 is_stmt 1
 329 0052 FFF7FEFF 		bl	SWITCHPIN_Read
 330              	.LVL23:
 331 0056 10B1     		cbz	r0, .L27
 126:.\main.c      **** 			/*Function to Send Data to PC*/
 332              		.loc 1 126 0 is_stmt 0 discriminator 1
 333 0058 0020     		movs	r0, #0
 334 005a FFF7FEFF 		bl	LEDPIN_Write
 335              	.LVL24:
ARM GAS  C:\DOCUME~1\Admin\LOCALS~1\Temp\ccfzBNk3.s 			page 11


 336              	.L27:
 128:.\main.c      **** 
 337              		.loc 1 128 0 is_stmt 1
 338 005e FFF7FEFF 		bl	In_EP
 339              	.LVL25:
 131:.\main.c      **** 
 340              		.loc 1 131 0
 341 0062 FFF7FEFF 		bl	Out_EP
 342              	.LVL26:
 343 0066 E1E7     		b	.L25
 344              	.L31:
 345              		.align	2
 346              	.L30:
 347 0068 04000000 		.word	.LANCHOR0+4
 348 006c 54650040 		.word	1073767764
 349 0070 00000000 		.word	.LANCHOR0
 350 0074 00000000 		.word	.LC0
 351              		.cfi_endproc
 352              	.LFE63:
 353              		.size	main, .-main
 354              		.global	aASCII_ToScanCode
 355              		.section	.rodata
 356              		.align	2
 357              		.set	.LANCHOR1,. + 0
 358              		.type	aASCII_ToScanCode, %object
 359              		.size	aASCII_ToScanCode, 96
 360              	aASCII_ToScanCode:
 361 0000 2C       		.byte	44
 362 0001 1E       		.byte	30
 363 0002 34       		.byte	52
 364 0003 20       		.byte	32
 365 0004 21       		.byte	33
 366 0005 22       		.byte	34
 367 0006 24       		.byte	36
 368 0007 34       		.byte	52
 369 0008 26       		.byte	38
 370 0009 27       		.byte	39
 371 000a 25       		.byte	37
 372 000b 2E       		.byte	46
 373 000c 36       		.byte	54
 374 000d 2D       		.byte	45
 375 000e 37       		.byte	55
 376 000f 38       		.byte	56
 377 0010 27       		.byte	39
 378 0011 1E       		.byte	30
 379 0012 1F       		.byte	31
 380 0013 20       		.byte	32
 381 0014 21       		.byte	33
 382 0015 22       		.byte	34
 383 0016 23       		.byte	35
 384 0017 24       		.byte	36
 385 0018 25       		.byte	37
 386 0019 26       		.byte	38
 387 001a 33       		.byte	51
 388 001b 33       		.byte	51
 389 001c 36       		.byte	54
 390 001d 2E       		.byte	46
ARM GAS  C:\DOCUME~1\Admin\LOCALS~1\Temp\ccfzBNk3.s 			page 12


 391 001e 37       		.byte	55
 392 001f 38       		.byte	56
 393 0020 1F       		.byte	31
 394 0021 04       		.byte	4
 395 0022 05       		.byte	5
 396 0023 06       		.byte	6
 397 0024 07       		.byte	7
 398 0025 08       		.byte	8
 399 0026 09       		.byte	9
 400 0027 0A       		.byte	10
 401 0028 0B       		.byte	11
 402 0029 0C       		.byte	12
 403 002a 0D       		.byte	13
 404 002b 0E       		.byte	14
 405 002c 0F       		.byte	15
 406 002d 10       		.byte	16
 407 002e 11       		.byte	17
 408 002f 12       		.byte	18
 409 0030 13       		.byte	19
 410 0031 14       		.byte	20
 411 0032 15       		.byte	21
 412 0033 16       		.byte	22
 413 0034 17       		.byte	23
 414 0035 18       		.byte	24
 415 0036 19       		.byte	25
 416 0037 1A       		.byte	26
 417 0038 1B       		.byte	27
 418 0039 1C       		.byte	28
 419 003a 1D       		.byte	29
 420 003b 2F       		.byte	47
 421 003c 31       		.byte	49
 422 003d 30       		.byte	48
 423 003e 23       		.byte	35
 424 003f 2D       		.byte	45
 425 0040 35       		.byte	53
 426 0041 04       		.byte	4
 427 0042 05       		.byte	5
 428 0043 06       		.byte	6
 429 0044 07       		.byte	7
 430 0045 08       		.byte	8
 431 0046 09       		.byte	9
 432 0047 0A       		.byte	10
 433 0048 0B       		.byte	11
 434 0049 0C       		.byte	12
 435 004a 0D       		.byte	13
 436 004b 0E       		.byte	14
 437 004c 0F       		.byte	15
 438 004d 10       		.byte	16
 439 004e 11       		.byte	17
 440 004f 12       		.byte	18
 441 0050 13       		.byte	19
 442 0051 14       		.byte	20
 443 0052 15       		.byte	21
 444 0053 16       		.byte	22
 445 0054 17       		.byte	23
 446 0055 18       		.byte	24
 447 0056 19       		.byte	25
ARM GAS  C:\DOCUME~1\Admin\LOCALS~1\Temp\ccfzBNk3.s 			page 13


 448 0057 1A       		.byte	26
 449 0058 1B       		.byte	27
 450 0059 1C       		.byte	28
 451 005a 1D       		.byte	29
 452 005b 2F       		.byte	47
 453 005c 31       		.byte	49
 454 005d 30       		.byte	48
 455 005e 35       		.byte	53
 456 005f 4C       		.byte	76
 457              		.section	.rodata.str1.4,"aMS",%progbits,1
 458              		.align	2
 459              	.LC0:
 460 0000 255800   		.ascii	"%X\000"
 461 0003 00       		.bss
 462              		.align	2
 463              		.set	.LANCHOR0,. + 0
 464              		.type	key, %object
 465              		.size	key, 1
 466              	key:
 467 0000 00       		.space	1
 468 0001 000000   		.space	3
 469              		.type	Keyboard_Data, %object
 470              		.size	Keyboard_Data, 8
 471              	Keyboard_Data:
 472 0004 00000000 		.space	8
 472      00000000 
 473              		.type	i, %object
 474              		.size	i, 1
 475              	i:
 476 000c 00       		.space	1
 477 000d 000000   		.space	3
 478              		.type	StringStorage, %object
 479              		.size	StringStorage, 8
 480              	StringStorage:
 481 0010 00000000 		.space	8
 481      00000000 
 482              		.type	Out_Data, %object
 483              		.size	Out_Data, 1
 484              	Out_Data:
 485 0018 00       		.space	1
 486 0019 000000   		.space	3
 487              		.type	shiftreg_result, %object
 488              		.size	shiftreg_result, 4
 489              	shiftreg_result:
 490 001c 00000000 		.space	4
 491              		.text
 492              	.Letext0:
 493              		.file 2 "c:\\program files\\cypress\\psoc creator\\3.3\\psoc creator\\import\\gnu\\arm\\4.9.3\\arm
 494              		.file 3 "c:\\program files\\cypress\\psoc creator\\3.3\\psoc creator\\import\\gnu\\arm\\4.9.3\\arm
 495              		.file 4 "Generated_Source\\PSoC5/cytypes.h"
 496              		.file 5 "Generated_Source\\PSoC5/core_cm3.h"
 497              		.file 6 "Generated_Source\\PSoC5/USBFS_1.h"
 498              		.file 7 "Generated_Source\\PSoC5/LEDPIN.h"
 499              		.file 8 "Generated_Source\\PSoC5/SWITCHPIN.h"
 500              		.file 9 "Generated_Source\\PSoC5/ShiftReg_1.h"
 501              		.file 10 "c:\\program files\\cypress\\psoc creator\\3.3\\psoc creator\\import\\gnu\\arm\\4.9.3\\ar